target datalayout = "e-m:e-p270:32:32-p271:32:32-p272:64:64-i64:64-i128:128-f80:128-n8:16:32:64-S128"
target triple = "x86_64-pc-linux-gnu"

%struct.AVProbeData = type { ptr, ptr, i32, ptr }

@.str.148 = private unnamed_addr constant [21 x i8] c"/* XBM X10 format */\00", align 1
@.str.149 = private unnamed_addr constant [8 x i8] c"#define\00", align 1

; Function Attrs: nounwind uwtable
define internal i32 @xbm_probe(ptr noundef %0) #0 {
  %2 = alloca i32, align 4
  %3 = alloca ptr, align 8
  store ptr %0, ptr %3, align 8, !tbaa !139
  %4 = load ptr, ptr %3, align 8, !tbaa !139
  %5 = getelementptr inbounds nuw %struct.AVProbeData, ptr %4, i32 0, i32 1
  %6 = load ptr, ptr %5, align 8, !tbaa !96
  %7 = call i32 @memcmp(ptr noundef %6, ptr noundef @.str.148, i64 noundef 20) #13
  %8 = icmp ne i32 %7, 0
  br i1 %8, label %10, label %9

9:                                                ; preds = %1
  store i32 100, ptr %2, align 4
  br label %18

10:                                               ; preds = %1
  %11 = load ptr, ptr %3, align 8, !tbaa !139
  %12 = getelementptr inbounds nuw %struct.AVProbeData, ptr %11, i32 0, i32 1
  %13 = load ptr, ptr %12, align 8, !tbaa !96
  %14 = call i32 @memcmp(ptr noundef %13, ptr noundef @.str.149, i64 noundef 7) #13
  %15 = icmp ne i32 %14, 0
  br i1 %15, label %17, label %16

16:                                               ; preds = %10
  store i32 99, ptr %2, align 4
  br label %18

17:                                               ; preds = %10
  store i32 0, ptr %2, align 4
  br label %18

18:                                               ; preds = %17, %16, %9
  %19 = load i32, ptr %2, align 4
  ret i32 %19
}