; Function Attrs: mustprogress nofree norecurse nounwind willreturn memory(read, inaccessiblemem: none) uwtable
define internal range(i32 0, 101) i32 @xbm_probe(ptr noundef readonly captures(none) %0) #9 {
  %2 = getelementptr inbounds nuw i8, ptr %0, i64 8
  %3 = load ptr, ptr %2, align 8, !tbaa !90
  %bcmp = tail call i32 @bcmp(ptr noundef nonnull dereferenceable(20) %3, ptr noundef nonnull dereferenceable(20) @.str.148, i64 20)
  %.not = icmp eq i32 %bcmp, 0
  br i1 %.not, label %5, label %4

4:                                                ; preds = %1
  %bcmp2 = tail call i32 @bcmp(ptr noundef nonnull dereferenceable(7) %3, ptr noundef nonnull dereferenceable(7) @.str.149, i64 7)
  %.not3 = icmp eq i32 %bcmp2, 0
  %. = select i1 %.not3, i32 99, i32 0
  br label %5

5:                                                ; preds = %4, %1
  %.0 = phi i32 [ 100, %1 ], [ %., %4 ]
  ret i32 %.0
}